target datalayout = "e-m:e-p270:32:32-p271:32:32-p272:64:64-i64:64-i128:128-f80:128-n8:16:32:64-S128"
target triple = "x86_64-unknown-linux-gnu"

%"class.icu_75::numparse::impl::ArraySeriesMatcher" = type <{ %"class.icu_75::numparse::impl::SeriesMatcher", %"class.icu_75::MaybeStackArray", i32, [4 x i8] }>
%"class.icu_75::numparse::impl::SeriesMatcher" = type { %"class.icu_75::numparse::impl::CompositionMatcher" }
%"class.icu_75::numparse::impl::CompositionMatcher" = type { %"class.icu_75::numparse::impl::NumberParseMatcher" }
%"class.icu_75::numparse::impl::NumberParseMatcher" = type { ptr }
%"class.icu_75::MaybeStackArray" = type { ptr, i32, i8, [3 x ptr] }

@_ZTVN6icu_758numparse4impl18NumberParseMatcherE = external unnamed_addr constant { [9 x ptr] }, align 8

; Function Attrs: mustprogress nounwind uwtable
define linkonce_odr void @_ZN6icu_758numparse4impl18NumberParseMatcherC2Ev(ptr noundef nonnull align 8 dereferenceable(8) %this) unnamed_addr #2 comdat align 2 {
entry:
  %this.addr = alloca ptr, align 8
  store ptr %this, ptr %this.addr, align 8
  %this1 = load ptr, ptr %this.addr, align 8
  store ptr getelementptr inbounds ({ [9 x ptr] }, ptr @_ZTVN6icu_758numparse4impl18NumberParseMatcherE, i32 0, i32 0, i32 2), ptr %this1, align 8
  ret void
}

; Function Attrs: mustprogress nounwind uwtable
define linkonce_odr void @_ZN6icu_758numparse4impl18CompositionMatcherD2Ev(ptr noundef nonnull align 8 dereferenceable(8) %this) unnamed_addr #2 comdat align 2 {
entry:
  %this.addr = alloca ptr, align 8
  store ptr %this, ptr %this.addr, align 8
  %this1 = load ptr, ptr %this.addr, align 8
  call void @_ZN6icu_758numparse4impl18NumberParseMatcherD2Ev(ptr noundef nonnull align 8 dereferenceable(8) %this1) #8
  ret void
}

; Function Attrs: mustprogress nounwind uwtable
define linkonce_odr void @_ZN6icu_758numparse4impl18CompositionMatcherC2Ev(ptr noundef nonnull align 8 dereferenceable(8) %this) unnamed_addr #2 comdat align 2 {
entry:
  %this.addr = alloca ptr, align 8
  store ptr %this, ptr %this.addr, align 8
  %this1 = load ptr, ptr %this.addr, align 8
  call void @_ZN6icu_758numparse4impl18NumberParseMatcherC2Ev(ptr noundef nonnull align 8 dereferenceable(8) %this1) #8
  store ptr getelementptr inbounds ({ [11 x ptr] }, ptr @_ZTVN6icu_758numparse4impl18CompositionMatcherE, i32 0, i32 0, i32 2), ptr %this1, align 8
  ret void
}

; Function Attrs: mustprogress nounwind uwtable
define linkonce_odr void @_ZN6icu_758numparse4impl13SeriesMatcherD2Ev(ptr noundef nonnull align 8 dereferenceable(8) %this) unnamed_addr #2 comdat align 2 {
entry:
  %this.addr = alloca ptr, align 8
  store ptr %this, ptr %this.addr, align 8
  %this1 = load ptr, ptr %this.addr, align 8
  call void @_ZN6icu_758numparse4impl18CompositionMatcherD2Ev(ptr noundef nonnull align 8 dereferenceable(8) %this1) #8
  ret void
}

; Function Attrs: mustprogress nounwind uwtable
define linkonce_odr void @_ZN6icu_7515MaybeStackArrayIPKNS_8numparse4impl18NumberParseMatcherELi3EEC2Ev(ptr noundef nonnull align 8 dereferenceable(40) %this) unnamed_addr #2 comdat align 2 {
entry:
  %this.addr = alloca ptr, align 8
  store ptr %this, ptr %this.addr, align 8
  %this1 = load ptr, ptr %this.addr, align 8
  %ptr = getelementptr inbounds %"class.icu_75::MaybeStackArray", ptr %this1, i32 0, i32 0
  %stackArray = getelementptr inbounds %"class.icu_75::MaybeStackArray", ptr %this1, i32 0, i32 3
  %arraydecay = getelementptr inbounds [3 x ptr], ptr %stackArray, i64 0, i64 0
  store ptr %arraydecay, ptr %ptr, align 8
  %capacity = getelementptr inbounds %"class.icu_75::MaybeStackArray", ptr %this1, i32 0, i32 1
  store i32 3, ptr %capacity, align 8
  %needToRelease = getelementptr inbounds %"class.icu_75::MaybeStackArray", ptr %this1, i32 0, i32 2
  store i8 0, ptr %needToRelease, align 4
  ret void
}

; Function Attrs: mustprogress nounwind uwtable
define linkonce_odr void @_ZN6icu_758numparse4impl13SeriesMatcherC2Ev(ptr noundef nonnull align 8 dereferenceable(8) %this) unnamed_addr #2 comdat align 2 {
entry:
  %this.addr = alloca ptr, align 8
  store ptr %this, ptr %this.addr, align 8
  %this1 = load ptr, ptr %this.addr, align 8
  call void @_ZN6icu_758numparse4impl18CompositionMatcherC2Ev(ptr noundef nonnull align 8 dereferenceable(8) %this1) #8
  store ptr getelementptr inbounds ({ [12 x ptr] }, ptr @_ZTVN6icu_758numparse4impl13SeriesMatcherE, i32 0, i32 0, i32 2), ptr %this1, align 8
  ret void
}

; Function Attrs: mustprogress uwtable
define void @_ZN6icu_758numparse4impl18ArraySeriesMatcherC2Ev(ptr noundef nonnull align 8 dereferenceable(52) %this) unnamed_addr #0 align 2 personality ptr @__gxx_personality_v0 {
entry:
  %this.addr = alloca ptr, align 8
  %exn.slot = alloca ptr, align 8
  %ehselector.slot = alloca i32, align 4
  store ptr %this, ptr %this.addr, align 8
  %this1 = load ptr, ptr %this.addr, align 8
  call void @_ZN6icu_758numparse4impl13SeriesMatcherC2Ev(ptr noundef nonnull align 8 dereferenceable(8) %this1) #8
  store ptr getelementptr inbounds ({ [12 x ptr] }, ptr @_ZTVN6icu_758numparse4impl18ArraySeriesMatcherE, i32 0, i32 0, i32 2), ptr %this1, align 8
  %fMatchers = getelementptr inbounds %"class.icu_75::numparse::impl::ArraySeriesMatcher", ptr %this1, i32 0, i32 1
  invoke void @_ZN6icu_7515MaybeStackArrayIPKNS_8numparse4impl18NumberParseMatcherELi3EEC2Ev(ptr noundef nonnull align 8 dereferenceable(40) %fMatchers)
          to label %invoke.cont unwind label %lpad

invoke.cont:                                      ; preds = %entry
  %fMatchersLen = getelementptr inbounds %"class.icu_75::numparse::impl::ArraySeriesMatcher", ptr %this1, i32 0, i32 2
  store i32 0, ptr %fMatchersLen, align 8
  ret void

lpad:                                             ; preds = %entry
  %0 = landingpad { ptr, i32 }
          cleanup
  %1 = extractvalue { ptr, i32 } %0, 0
  store ptr %1, ptr %exn.slot, align 8
  %2 = extractvalue { ptr, i32 } %0, 1
  store i32 %2, ptr %ehselector.slot, align 4
  call void @_ZN6icu_758numparse4impl13SeriesMatcherD2Ev(ptr noundef nonnull align 8 dereferenceable(8) %this1) #8
  br label %eh.resume

eh.resume:                                        ; preds = %lpad
  %exn = load ptr, ptr %exn.slot, align 8
  %sel = load i32, ptr %ehselector.slot, align 4
  %lpad.val = insertvalue { ptr, i32 } poison, ptr %exn, 0
  %lpad.val2 = insertvalue { ptr, i32 } %lpad.val, i32 %sel, 1
  resume { ptr, i32 } %lpad.val2
}