; Function Attrs: mustprogress nofree norecurse nosync nounwind willreturn memory(argmem: write) uwtable
define void @_ZN6icu_758numparse4impl18ArraySeriesMatcherC2Ev(ptr noundef nonnull align 8 dereferenceable(52) %this) unnamed_addr #3 align 2 personality ptr @__gxx_personality_v0 {
entry:
  store ptr getelementptr inbounds ({ [12 x ptr] }, ptr @_ZTVN6icu_758numparse4impl18ArraySeriesMatcherE, i64 0, i32 0, i64 2), ptr %this, align 8
  %fMatchers = getelementptr inbounds i8, ptr %this, i64 8
  %stackArray.i = getelementptr inbounds i8, ptr %this, i64 24
  store ptr %stackArray.i, ptr %fMatchers, align 8
  %capacity.i = getelementptr inbounds i8, ptr %this, i64 16
  store i32 3, ptr %capacity.i, align 8
  %needToRelease.i = getelementptr inbounds i8, ptr %this, i64 20
  store i8 0, ptr %needToRelease.i, align 4
  %fMatchersLen = getelementptr inbounds i8, ptr %this, i64 48
  store i32 0, ptr %fMatchersLen, align 8
  ret void
}